target datalayout = "e-m:e-p270:32:32-p271:32:32-p272:64:64-i64:64-i128:128-f80:128-n8:16:32:64-S128"
target triple = "x86_64-pc-linux-gnu"

%"struct.std::_Vector_base" = type { %"struct.std::_Vector_base<ZXing::Nullable<ZXing::Pdf417::Codeword>, std::allocator<ZXing::Nullable<ZXing::Pdf417::Codeword>>>::_Vector_impl" }
%"struct.std::_Vector_base<ZXing::Nullable<ZXing::Pdf417::Codeword>, std::allocator<ZXing::Nullable<ZXing::Pdf417::Codeword>>>::_Vector_impl" = type { %"struct.std::_Vector_base<ZXing::Nullable<ZXing::Pdf417::Codeword>, std::allocator<ZXing::Nullable<ZXing::Pdf417::Codeword>>>::_Vector_impl_data" }
%"struct.std::_Vector_base<ZXing::Nullable<ZXing::Pdf417::Codeword>, std::allocator<ZXing::Nullable<ZXing::Pdf417::Codeword>>>::_Vector_impl_data" = type { ptr, ptr, ptr }
%"class.ZXing::Nullable.0" = type { i8, %"class.ZXing::Pdf417::Codeword" }
%"class.ZXing::Pdf417::Codeword" = type { i32, i32, i32, i32, i32 }
%"class.__gnu_cxx::__normal_iterator" = type { ptr }
%"class.ZXing::Pdf417::BarcodeMetadata" = type { i32, i32, i32, i32 }

; Function Attrs: mustprogress nounwind uwtable
define linkonce_odr void @_ZN5ZXing6Pdf4178CodewordC2Ev(ptr noundef nonnull align 4 dereferenceable(20) %0) unnamed_addr #2 comdat align 2 {
  %2 = alloca ptr, align 8
  store ptr %0, ptr %2, align 8, !tbaa !51
  %3 = load ptr, ptr %2, align 8
  %4 = getelementptr inbounds nuw %"class.ZXing::Pdf417::Codeword", ptr %3, i32 0, i32 0
  store i32 0, ptr %4, align 4, !tbaa !98
  %5 = getelementptr inbounds nuw %"class.ZXing::Pdf417::Codeword", ptr %3, i32 0, i32 1
  store i32 0, ptr %5, align 4, !tbaa !99
  %6 = getelementptr inbounds nuw %"class.ZXing::Pdf417::Codeword", ptr %3, i32 0, i32 2
  store i32 0, ptr %6, align 4, !tbaa !54
  %7 = getelementptr inbounds nuw %"class.ZXing::Pdf417::Codeword", ptr %3, i32 0, i32 3
  store i32 0, ptr %7, align 4, !tbaa !53
  %8 = getelementptr inbounds nuw %"class.ZXing::Pdf417::Codeword", ptr %3, i32 0, i32 4
  store i32 -1, ptr %8, align 4, !tbaa !55
  ret void
}

; Function Attrs: mustprogress nounwind uwtable
define linkonce_odr noundef nonnull align 8 dereferenceable(8) ptr @_ZNK9__gnu_cxx17__normal_iteratorIPN5ZXing8NullableINS1_6Pdf4178CodewordEEESt6vectorIS5_SaIS5_EEE4baseEv(ptr noundef nonnull align 8 dereferenceable(8) %0) #2 comdat align 2 {
  %2 = alloca ptr, align 8
  store ptr %0, ptr %2, align 8, !tbaa !47
  %3 = load ptr, ptr %2, align 8
  %4 = getelementptr inbounds nuw %"class.__gnu_cxx::__normal_iterator", ptr %3, i32 0, i32 0
  ret ptr %4
}

; Function Attrs: mustprogress nounwind uwtable
define linkonce_odr void @_ZN9__gnu_cxx17__normal_iteratorIPN5ZXing8NullableINS1_6Pdf4178CodewordEEESt6vectorIS5_SaIS5_EEEC2ERKS6_(ptr noundef nonnull align 8 dereferenceable(8) %0, ptr noundef nonnull align 8 dereferenceable(8) %1) unnamed_addr #2 comdat align 2 {
  %3 = alloca ptr, align 8
  %4 = alloca ptr, align 8
  store ptr %0, ptr %3, align 8, !tbaa !47
  store ptr %1, ptr %4, align 8, !tbaa !102
  %5 = load ptr, ptr %3, align 8
  %6 = getelementptr inbounds nuw %"class.__gnu_cxx::__normal_iterator", ptr %5, i32 0, i32 0
  %7 = load ptr, ptr %4, align 8, !tbaa !102
  %8 = load ptr, ptr %7, align 8, !tbaa !39
  store ptr %8, ptr %6, align 8, !tbaa !49
  ret void
}

; Function Attrs: mustprogress nounwind uwtable
define linkonce_odr noundef nonnull align 8 dereferenceable(8) ptr @_ZN9__gnu_cxx17__normal_iteratorIPN5ZXing8NullableINS1_6Pdf4178CodewordEEESt6vectorIS5_SaIS5_EEEppEv(ptr noundef nonnull align 8 dereferenceable(8) %0) #2 comdat align 2 {
  %2 = alloca ptr, align 8
  store ptr %0, ptr %2, align 8, !tbaa !47
  %3 = load ptr, ptr %2, align 8
  %4 = getelementptr inbounds nuw %"class.__gnu_cxx::__normal_iterator", ptr %3, i32 0, i32 0
  %5 = load ptr, ptr %4, align 8, !tbaa !49
  %6 = getelementptr inbounds nuw %"class.ZXing::Nullable.0", ptr %5, i32 1
  store ptr %6, ptr %4, align 8, !tbaa !49
  ret ptr %3
}

; Function Attrs: mustprogress nounwind uwtable
define linkonce_odr noundef i32 @_ZNK5ZXing6Pdf41715BarcodeMetadata11columnCountEv(ptr noundef nonnull align 4 dereferenceable(16) %0) #2 comdat align 2 {
  %2 = alloca ptr, align 8
  store ptr %0, ptr %2, align 8, !tbaa !56
  %3 = load ptr, ptr %2, align 8
  %4 = getelementptr inbounds nuw %"class.ZXing::Pdf417::BarcodeMetadata", ptr %3, i32 0, i32 0
  %5 = load i32, ptr %4, align 4, !tbaa !74
  ret i32 %5
}

; Function Attrs: mustprogress nounwind uwtable
define linkonce_odr noundef i32 @_ZNK5ZXing6Pdf41715BarcodeMetadata17rowCountLowerPartEv(ptr noundef nonnull align 4 dereferenceable(16) %0) #2 comdat align 2 {
  %2 = alloca ptr, align 8
  store ptr %0, ptr %2, align 8, !tbaa !56
  %3 = load ptr, ptr %2, align 8
  %4 = getelementptr inbounds nuw %"class.ZXing::Pdf417::BarcodeMetadata", ptr %3, i32 0, i32 3
  %5 = load i32, ptr %4, align 4, !tbaa !68
  ret i32 %5
}

; Function Attrs: mustprogress nounwind uwtable
define linkonce_odr noundef i32 @_ZNK5ZXing6Pdf41715BarcodeMetadata20errorCorrectionLevelEv(ptr noundef nonnull align 4 dereferenceable(16) %0) #2 comdat align 2 {
  %2 = alloca ptr, align 8
  store ptr %0, ptr %2, align 8, !tbaa !56
  %3 = load ptr, ptr %2, align 8
  %4 = getelementptr inbounds nuw %"class.ZXing::Pdf417::BarcodeMetadata", ptr %3, i32 0, i32 1
  %5 = load i32, ptr %4, align 4, !tbaa !75
  ret i32 %5
}

; Function Attrs: mustprogress nounwind uwtable
define linkonce_odr noundef i32 @_ZNK5ZXing6Pdf41715BarcodeMetadata17rowCountUpperPartEv(ptr noundef nonnull align 4 dereferenceable(16) %0) #2 comdat align 2 {
  %2 = alloca ptr, align 8
  store ptr %0, ptr %2, align 8, !tbaa !56
  %3 = load ptr, ptr %2, align 8
  %4 = getelementptr inbounds nuw %"class.ZXing::Pdf417::BarcodeMetadata", ptr %3, i32 0, i32 2
  %5 = load i32, ptr %4, align 4, !tbaa !66
  ret i32 %5
}

; Function Attrs: mustprogress uwtable
define linkonce_odr noundef nonnull align 4 dereferenceable(24) ptr @_ZN5ZXing8NullableINS_6Pdf4178CodewordEEaSEDn(ptr noundef nonnull align 4 dereferenceable(24) %0, ptr %1) #0 comdat align 2 {
  %3 = alloca ptr, align 8
  %4 = alloca ptr, align 8
  %5 = alloca %"class.ZXing::Pdf417::Codeword", align 4
  store ptr %0, ptr %3, align 8, !tbaa !39
  store ptr %1, ptr %4, align 8, !tbaa !40
  %6 = load ptr, ptr %3, align 8
  %7 = getelementptr inbounds nuw %"class.ZXing::Nullable.0", ptr %6, i32 0, i32 0
  store i8 0, ptr %7, align 4, !tbaa !42
  call void @llvm.lifetime.start.p0(i64 20, ptr %5) #15
  call void @_ZN5ZXing6Pdf4178CodewordC2Ev(ptr noundef nonnull align 4 dereferenceable(20) %5)
  %8 = getelementptr inbounds nuw %"class.ZXing::Nullable.0", ptr %6, i32 0, i32 1
  call void @llvm.memcpy.p0.p0.i64(ptr align 4 %8, ptr align 4 %5, i64 20, i1 false), !tbaa.struct !65
  call void @llvm.lifetime.end.p0(i64 20, ptr %5) #15
  ret ptr %6
}

; Function Attrs: mustprogress nounwind uwtable
define linkonce_odr noundef i32 @_ZNK5ZXing6Pdf41715BarcodeMetadata8rowCountEv(ptr noundef nonnull align 4 dereferenceable(16) %0) #2 comdat align 2 {
  %2 = alloca ptr, align 8
  store ptr %0, ptr %2, align 8, !tbaa !56
  %3 = load ptr, ptr %2, align 8
  %4 = getelementptr inbounds nuw %"class.ZXing::Pdf417::BarcodeMetadata", ptr %3, i32 0, i32 2
  %5 = load i32, ptr %4, align 4, !tbaa !66
  %6 = getelementptr inbounds nuw %"class.ZXing::Pdf417::BarcodeMetadata", ptr %3, i32 0, i32 3
  %7 = load i32, ptr %6, align 4, !tbaa !68
  %8 = add nsw i32 %5, %7
  ret i32 %8
}

; Function Attrs: mustprogress nounwind uwtable
define linkonce_odr noundef i32 @_ZNK5ZXing6Pdf4178Codeword9rowNumberEv(ptr noundef nonnull align 4 dereferenceable(20) %0) #2 comdat align 2 {
  %2 = alloca ptr, align 8
  store ptr %0, ptr %2, align 8, !tbaa !51
  %3 = load ptr, ptr %2, align 8
  %4 = getelementptr inbounds nuw %"class.ZXing::Pdf417::Codeword", ptr %3, i32 0, i32 4
  %5 = load i32, ptr %4, align 4, !tbaa !55
  ret i32 %5
}

; Function Attrs: mustprogress nounwind uwtable
define linkonce_odr noundef i32 @_ZNK5ZXing6Pdf4178Codeword5valueEv(ptr noundef nonnull align 4 dereferenceable(20) %0) #2 comdat align 2 {
  %2 = alloca ptr, align 8
  store ptr %0, ptr %2, align 8, !tbaa !51
  %3 = load ptr, ptr %2, align 8
  %4 = getelementptr inbounds nuw %"class.ZXing::Pdf417::Codeword", ptr %3, i32 0, i32 3
  %5 = load i32, ptr %4, align 4, !tbaa !53
  ret i32 %5
}

; Function Attrs: mustprogress nounwind uwtable
define linkonce_odr noundef nonnull align 4 dereferenceable(20) ptr @_ZN5ZXing8NullableINS_6Pdf4178CodewordEE5valueEv(ptr noundef nonnull align 4 dereferenceable(24) %0) #2 comdat align 2 {
  %2 = alloca ptr, align 8
  store ptr %0, ptr %2, align 8, !tbaa !39
  %3 = load ptr, ptr %2, align 8
  %4 = getelementptr inbounds nuw %"class.ZXing::Nullable.0", ptr %3, i32 0, i32 1
  ret ptr %4
}

; Function Attrs: inlinehint mustprogress nounwind uwtable
define linkonce_odr noundef zeroext i1 @_ZN5ZXingeqERKNS_8NullableINS_6Pdf4178CodewordEEEDn(ptr noundef nonnull align 4 dereferenceable(24) %0, ptr %1) #6 comdat {
  %3 = alloca ptr, align 8
  %4 = alloca ptr, align 8
  store ptr %0, ptr %3, align 8, !tbaa !39
  store ptr %1, ptr %4, align 8, !tbaa !40
  %5 = load ptr, ptr %3, align 8, !tbaa !39
  %6 = getelementptr inbounds nuw %"class.ZXing::Nullable.0", ptr %5, i32 0, i32 0
  %7 = load i8, ptr %6, align 4, !tbaa !42, !range !45, !noundef !46
  %8 = trunc i8 %7 to i1
  %9 = xor i1 %8, true
  ret i1 %9
}

; Function Attrs: mustprogress nounwind uwtable
define linkonce_odr noundef nonnull align 4 dereferenceable(24) ptr @_ZNK9__gnu_cxx17__normal_iteratorIPN5ZXing8NullableINS1_6Pdf4178CodewordEEESt6vectorIS5_SaIS5_EEEdeEv(ptr noundef nonnull align 8 dereferenceable(8) %0) #2 comdat align 2 {
  %2 = alloca ptr, align 8
  store ptr %0, ptr %2, align 8, !tbaa !47
  %3 = load ptr, ptr %2, align 8
  %4 = getelementptr inbounds nuw %"class.__gnu_cxx::__normal_iterator", ptr %3, i32 0, i32 0
  %5 = load ptr, ptr %4, align 8, !tbaa !49
  ret ptr %5
}

; Function Attrs: mustprogress nounwind uwtable
define linkonce_odr noundef zeroext i1 @_ZN9__gnu_cxxeqIPN5ZXing8NullableINS1_6Pdf4178CodewordEEESt6vectorIS5_SaIS5_EEEEbRKNS_17__normal_iteratorIT_T0_EESF_QrqXeqcldtfp_4baseEcldtfp0_4baseERSt14convertible_toIbEE(ptr noundef nonnull align 8 dereferenceable(8) %0, ptr noundef nonnull align 8 dereferenceable(8) %1) #2 comdat {
  %3 = alloca ptr, align 8
  %4 = alloca ptr, align 8
  store ptr %0, ptr %3, align 8, !tbaa !47
  store ptr %1, ptr %4, align 8, !tbaa !47
  %5 = load ptr, ptr %3, align 8, !tbaa !47
  %6 = call noundef nonnull align 8 dereferenceable(8) ptr @_ZNK9__gnu_cxx17__normal_iteratorIPN5ZXing8NullableINS1_6Pdf4178CodewordEEESt6vectorIS5_SaIS5_EEE4baseEv(ptr noundef nonnull align 8 dereferenceable(8) %5) #15
  %7 = load ptr, ptr %6, align 8, !tbaa !39
  %8 = load ptr, ptr %4, align 8, !tbaa !47
  %9 = call noundef nonnull align 8 dereferenceable(8) ptr @_ZNK9__gnu_cxx17__normal_iteratorIPN5ZXing8NullableINS1_6Pdf4178CodewordEEESt6vectorIS5_SaIS5_EEE4baseEv(ptr noundef nonnull align 8 dereferenceable(8) %8) #15
  %10 = load ptr, ptr %9, align 8, !tbaa !39
  %11 = icmp eq ptr %7, %10
  ret i1 %11
}

; Function Attrs: mustprogress nounwind uwtable
define linkonce_odr ptr @_ZNSt6vectorIN5ZXing8NullableINS0_6Pdf4178CodewordEEESaIS4_EE3endEv(ptr noundef nonnull align 8 dereferenceable(24) %0) #2 comdat align 2 {
  %2 = alloca %"class.__gnu_cxx::__normal_iterator", align 8
  %3 = alloca ptr, align 8
  store ptr %0, ptr %3, align 8, !tbaa !26
  %4 = load ptr, ptr %3, align 8
  %5 = getelementptr inbounds nuw %"struct.std::_Vector_base", ptr %4, i32 0, i32 0
  %6 = getelementptr inbounds nuw %"struct.std::_Vector_base<ZXing::Nullable<ZXing::Pdf417::Codeword>, std::allocator<ZXing::Nullable<ZXing::Pdf417::Codeword>>>::_Vector_impl_data", ptr %5, i32 0, i32 1
  call void @_ZN9__gnu_cxx17__normal_iteratorIPN5ZXing8NullableINS1_6Pdf4178CodewordEEESt6vectorIS5_SaIS5_EEEC2ERKS6_(ptr noundef nonnull align 8 dereferenceable(8) %2, ptr noundef nonnull align 8 dereferenceable(8) %6) #15
  %7 = getelementptr inbounds nuw %"class.__gnu_cxx::__normal_iterator", ptr %2, i32 0, i32 0
  %8 = load ptr, ptr %7, align 8
  ret ptr %8
}

; Function Attrs: mustprogress nounwind uwtable
define linkonce_odr ptr @_ZNSt6vectorIN5ZXing8NullableINS0_6Pdf4178CodewordEEESaIS4_EE5beginEv(ptr noundef nonnull align 8 dereferenceable(24) %0) #2 comdat align 2 {
  %2 = alloca %"class.__gnu_cxx::__normal_iterator", align 8
  %3 = alloca ptr, align 8
  store ptr %0, ptr %3, align 8, !tbaa !26
  %4 = load ptr, ptr %3, align 8
  %5 = getelementptr inbounds nuw %"struct.std::_Vector_base", ptr %4, i32 0, i32 0
  %6 = getelementptr inbounds nuw %"struct.std::_Vector_base<ZXing::Nullable<ZXing::Pdf417::Codeword>, std::allocator<ZXing::Nullable<ZXing::Pdf417::Codeword>>>::_Vector_impl_data", ptr %5, i32 0, i32 0
  call void @_ZN9__gnu_cxx17__normal_iteratorIPN5ZXing8NullableINS1_6Pdf4178CodewordEEESt6vectorIS5_SaIS5_EEEC2ERKS6_(ptr noundef nonnull align 8 dereferenceable(8) %2, ptr noundef nonnull align 8 dereferenceable(8) %6) #15
  %7 = getelementptr inbounds nuw %"class.__gnu_cxx::__normal_iterator", ptr %2, i32 0, i32 0
  %8 = load ptr, ptr %7, align 8
  ret ptr %8
}

; Function Attrs: mustprogress uwtable
define internal void @_ZN5ZXing6Pdf417L24RemoveIncorrectCodewordsEbRSt6vectorINS_8NullableINS0_8CodewordEEESaIS4_EERKNS0_15BarcodeMetadataE(i1 noundef zeroext %0, ptr noundef nonnull align 8 dereferenceable(24) %1, ptr noundef nonnull align 4 dereferenceable(16) %2) #0 {
  %4 = alloca i8, align 1
  %5 = alloca ptr, align 8
  %6 = alloca ptr, align 8
  %7 = alloca ptr, align 8
  %8 = alloca %"class.__gnu_cxx::__normal_iterator", align 8
  %9 = alloca %"class.__gnu_cxx::__normal_iterator", align 8
  %10 = alloca i32, align 4
  %11 = alloca ptr, align 8
  %12 = alloca ptr, align 8
  %13 = alloca i32, align 4
  %14 = alloca i32, align 4
  %15 = zext i1 %0 to i8
  store i8 %15, ptr %4, align 1, !tbaa !36
  store ptr %1, ptr %5, align 8, !tbaa !26
  store ptr %2, ptr %6, align 8, !tbaa !56
  call void @llvm.lifetime.start.p0(i64 8, ptr %7) #15
  %16 = load ptr, ptr %5, align 8, !tbaa !26
  store ptr %16, ptr %7, align 8, !tbaa !26
  call void @llvm.lifetime.start.p0(i64 8, ptr %8) #15
  %17 = load ptr, ptr %7, align 8, !tbaa !26
  %18 = call ptr @_ZNSt6vectorIN5ZXing8NullableINS0_6Pdf4178CodewordEEESaIS4_EE5beginEv(ptr noundef nonnull align 8 dereferenceable(24) %17) #15
  %19 = getelementptr inbounds nuw %"class.__gnu_cxx::__normal_iterator", ptr %8, i32 0, i32 0
  store ptr %18, ptr %19, align 8
  call void @llvm.lifetime.start.p0(i64 8, ptr %9) #15
  %20 = load ptr, ptr %7, align 8, !tbaa !26
  %21 = call ptr @_ZNSt6vectorIN5ZXing8NullableINS0_6Pdf4178CodewordEEESaIS4_EE3endEv(ptr noundef nonnull align 8 dereferenceable(24) %20) #15
  %22 = getelementptr inbounds nuw %"class.__gnu_cxx::__normal_iterator", ptr %9, i32 0, i32 0
  store ptr %21, ptr %22, align 8
  br label %23

23:                                               ; preds = %100, %3
  %24 = call noundef zeroext i1 @_ZN9__gnu_cxxeqIPN5ZXing8NullableINS1_6Pdf4178CodewordEEESt6vectorIS5_SaIS5_EEEEbRKNS_17__normal_iteratorIT_T0_EESF_QrqXeqcldtfp_4baseEcldtfp0_4baseERSt14convertible_toIbEE(ptr noundef nonnull align 8 dereferenceable(8) %8, ptr noundef nonnull align 8 dereferenceable(8) %9) #15
  %25 = xor i1 %24, true
  br i1 %25, label %27, label %26

26:                                               ; preds = %23
  store i32 2, ptr %10, align 4
  call void @llvm.lifetime.end.p0(i64 8, ptr %9) #15
  call void @llvm.lifetime.end.p0(i64 8, ptr %8) #15
  call void @llvm.lifetime.end.p0(i64 8, ptr %7) #15
  br label %102

27:                                               ; preds = %23
  call void @llvm.lifetime.start.p0(i64 8, ptr %11) #15
  %28 = call noundef nonnull align 4 dereferenceable(24) ptr @_ZNK9__gnu_cxx17__normal_iteratorIPN5ZXing8NullableINS1_6Pdf4178CodewordEEESt6vectorIS5_SaIS5_EEEdeEv(ptr noundef nonnull align 8 dereferenceable(8) %8) #15
  store ptr %28, ptr %11, align 8, !tbaa !39
  %29 = load ptr, ptr %11, align 8, !tbaa !39
  %30 = call noundef zeroext i1 @_ZN5ZXingeqERKNS_8NullableINS_6Pdf4178CodewordEEEDn(ptr noundef nonnull align 4 dereferenceable(24) %29, ptr null)
  br i1 %30, label %31, label %32

31:                                               ; preds = %27
  store i32 3, ptr %10, align 4
  br label %97

32:                                               ; preds = %27
  call void @llvm.lifetime.start.p0(i64 8, ptr %12) #15
  %33 = load ptr, ptr %11, align 8, !tbaa !39
  %34 = call noundef nonnull align 4 dereferenceable(20) ptr @_ZN5ZXing8NullableINS_6Pdf4178CodewordEE5valueEv(ptr noundef nonnull align 4 dereferenceable(24) %33)
  store ptr %34, ptr %12, align 8, !tbaa !51
  call void @llvm.lifetime.start.p0(i64 4, ptr %13) #15
  %35 = load ptr, ptr %12, align 8, !tbaa !51
  %36 = call noundef i32 @_ZNK5ZXing6Pdf4178Codeword5valueEv(ptr noundef nonnull align 4 dereferenceable(20) %35)
  %37 = srem i32 %36, 30
  store i32 %37, ptr %13, align 4, !tbaa !34
  call void @llvm.lifetime.start.p0(i64 4, ptr %14) #15
  %38 = load ptr, ptr %12, align 8, !tbaa !51
  %39 = call noundef i32 @_ZNK5ZXing6Pdf4178Codeword9rowNumberEv(ptr noundef nonnull align 4 dereferenceable(20) %38)
  store i32 %39, ptr %14, align 4, !tbaa !34
  %40 = load i32, ptr %14, align 4, !tbaa !34
  %41 = load ptr, ptr %6, align 8, !tbaa !56
  %42 = call noundef i32 @_ZNK5ZXing6Pdf41715BarcodeMetadata8rowCountEv(ptr noundef nonnull align 4 dereferenceable(16) %41)
  %43 = icmp sgt i32 %40, %42
  br i1 %43, label %44, label %47

44:                                               ; preds = %32
  %45 = load ptr, ptr %11, align 8, !tbaa !39
  %46 = call noundef nonnull align 4 dereferenceable(24) ptr @_ZN5ZXing8NullableINS_6Pdf4178CodewordEEaSEDn(ptr noundef nonnull align 4 dereferenceable(24) %45, ptr null)
  store i32 3, ptr %10, align 4
  br label %94

47:                                               ; preds = %32
  %48 = load i8, ptr %4, align 1, !tbaa !36, !range !45, !noundef !46
  %49 = trunc i8 %48 to i1
  br i1 %49, label %53, label %50

50:                                               ; preds = %47
  %51 = load i32, ptr %14, align 4, !tbaa !34
  %52 = add nsw i32 %51, 2
  store i32 %52, ptr %14, align 4, !tbaa !34
  br label %53

53:                                               ; preds = %50, %47
  %54 = load i32, ptr %14, align 4, !tbaa !34
  %55 = srem i32 %54, 3
  switch i32 %55, label %93 [
    i32 0, label %56
    i32 1, label %67
    i32 2, label %83
  ]

56:                                               ; preds = %53
  %57 = load i32, ptr %13, align 4, !tbaa !34
  %58 = mul nsw i32 %57, 3
  %59 = add nsw i32 %58, 1
  %60 = load ptr, ptr %6, align 8, !tbaa !56
  %61 = call noundef i32 @_ZNK5ZXing6Pdf41715BarcodeMetadata17rowCountUpperPartEv(ptr noundef nonnull align 4 dereferenceable(16) %60)
  %62 = icmp ne i32 %59, %61
  br i1 %62, label %63, label %66

63:                                               ; preds = %56
  %64 = load ptr, ptr %11, align 8, !tbaa !39
  %65 = call noundef nonnull align 4 dereferenceable(24) ptr @_ZN5ZXing8NullableINS_6Pdf4178CodewordEEaSEDn(ptr noundef nonnull align 4 dereferenceable(24) %64, ptr null)
  br label %66

66:                                               ; preds = %63, %56
  br label %93

67:                                               ; preds = %53
  %68 = load i32, ptr %13, align 4, !tbaa !34
  %69 = sdiv i32 %68, 3
  %70 = load ptr, ptr %6, align 8, !tbaa !56
  %71 = call noundef i32 @_ZNK5ZXing6Pdf41715BarcodeMetadata20errorCorrectionLevelEv(ptr noundef nonnull align 4 dereferenceable(16) %70)
  %72 = icmp ne i32 %69, %71
  br i1 %72, label %79, label %73

73:                                               ; preds = %67
  %74 = load i32, ptr %13, align 4, !tbaa !34
  %75 = srem i32 %74, 3
  %76 = load ptr, ptr %6, align 8, !tbaa !56
  %77 = call noundef i32 @_ZNK5ZXing6Pdf41715BarcodeMetadata17rowCountLowerPartEv(ptr noundef nonnull align 4 dereferenceable(16) %76)
  %78 = icmp ne i32 %75, %77
  br i1 %78, label %79, label %82

79:                                               ; preds = %73, %67
  %80 = load ptr, ptr %11, align 8, !tbaa !39
  %81 = call noundef nonnull align 4 dereferenceable(24) ptr @_ZN5ZXing8NullableINS_6Pdf4178CodewordEEaSEDn(ptr noundef nonnull align 4 dereferenceable(24) %80, ptr null)
  br label %82

82:                                               ; preds = %79, %73
  br label %93

83:                                               ; preds = %53
  %84 = load i32, ptr %13, align 4, !tbaa !34
  %85 = add nsw i32 %84, 1
  %86 = load ptr, ptr %6, align 8, !tbaa !56
  %87 = call noundef i32 @_ZNK5ZXing6Pdf41715BarcodeMetadata11columnCountEv(ptr noundef nonnull align 4 dereferenceable(16) %86)
  %88 = icmp ne i32 %85, %87
  br i1 %88, label %89, label %92

89:                                               ; preds = %83
  %90 = load ptr, ptr %11, align 8, !tbaa !39
  %91 = call noundef nonnull align 4 dereferenceable(24) ptr @_ZN5ZXing8NullableINS_6Pdf4178CodewordEEaSEDn(ptr noundef nonnull align 4 dereferenceable(24) %90, ptr null)
  br label %92

92:                                               ; preds = %89, %83
  br label %93

93:                                               ; preds = %53, %92, %82, %66
  store i32 0, ptr %10, align 4
  br label %94

94:                                               ; preds = %93, %44
  call void @llvm.lifetime.end.p0(i64 4, ptr %14) #15
  call void @llvm.lifetime.end.p0(i64 4, ptr %13) #15
  call void @llvm.lifetime.end.p0(i64 8, ptr %12) #15
  %95 = load i32, ptr %10, align 4
  switch i32 %95, label %97 [
    i32 0, label %96
  ]

96:                                               ; preds = %94
  store i32 0, ptr %10, align 4
  br label %97

97:                                               ; preds = %96, %94, %31
  call void @llvm.lifetime.end.p0(i64 8, ptr %11) #15
  %98 = load i32, ptr %10, align 4
  switch i32 %98, label %103 [
    i32 0, label %99
    i32 3, label %100
  ]

99:                                               ; preds = %97
  br label %100

100:                                              ; preds = %99, %97
  %101 = call noundef nonnull align 8 dereferenceable(8) ptr @_ZN9__gnu_cxx17__normal_iteratorIPN5ZXing8NullableINS1_6Pdf4178CodewordEEESt6vectorIS5_SaIS5_EEEppEv(ptr noundef nonnull align 8 dereferenceable(8) %8) #15
  br label %23

102:                                              ; preds = %26
  ret void

103:                                              ; preds = %97
  unreachable
}