; Function Attrs: mustprogress nofree norecurse nosync nounwind memory(argmem: readwrite) uwtable
define internal fastcc void @_ZN5ZXing6Pdf417L24RemoveIncorrectCodewordsEbRSt6vectorINS_8NullableINS0_8CodewordEEESaIS4_EERKNS0_15BarcodeMetadataE(i1 noundef zeroext %0, ptr captures(address) %.0.val, ptr readnone captures(address) %.8.val, ptr noundef nonnull readonly align 4 captures(none) dereferenceable(16) %1) unnamed_addr #7 {
  %3 = icmp eq ptr %.0.val, %.8.val
  br i1 %3, label %._crit_edge, label %.lr.ph

.lr.ph:                                           ; preds = %2
  %4 = getelementptr inbounds nuw i8, ptr %1, i64 8
  %5 = getelementptr inbounds nuw i8, ptr %1, i64 12
  %6 = getelementptr inbounds nuw i8, ptr %1, i64 4
  br label %7

._crit_edge:                                      ; preds = %34, %2
  ret void

7:                                                ; preds = %.lr.ph, %34
  %.sroa.01.06 = phi ptr [ %.0.val, %.lr.ph ], [ %35, %34 ]
  %8 = load i8, ptr %.sroa.01.06, align 4, !tbaa !25, !range !28, !noundef !29
  %9 = trunc nuw i8 %8 to i1
  br i1 %9, label %10, label %34

10:                                               ; preds = %7
  %11 = getelementptr inbounds nuw i8, ptr %.sroa.01.06, i64 4
  %12 = getelementptr inbounds nuw i8, ptr %.sroa.01.06, i64 16
  %13 = load i32, ptr %12, align 4, !tbaa !37
  %14 = srem i32 %13, 30
  %15 = getelementptr inbounds nuw i8, ptr %.sroa.01.06, i64 20
  %16 = load i32, ptr %15, align 4, !tbaa !35
  %17 = load i32, ptr %4, align 4, !tbaa !39
  %18 = load i32, ptr %5, align 4, !tbaa !41
  %19 = add nsw i32 %18, %17
  %20 = icmp sgt i32 %16, %19
  br i1 %20, label %.sink.split, label %21

21:                                               ; preds = %10
  %22 = add nsw i32 %16, 2
  %spec.select = select i1 %0, i32 %16, i32 %22
  %23 = srem i32 %spec.select, 3
  switch i32 %23, label %34 [
    i32 0, label %24
    i32 1, label %27
    i32 2, label %31
  ]

24:                                               ; preds = %21
  %25 = mul nsw i32 %14, 3
  %26 = add nsw i32 %25, 1
  %.not28 = icmp eq i32 %26, %17
  br i1 %.not28, label %34, label %.sink.split

27:                                               ; preds = %21
  %.lhs.trunc = trunc nsw i32 %14 to i8
  %28 = sdiv i8 %.lhs.trunc, 3
  %29 = srem i8 %.lhs.trunc, 3
  %.sext = sext i8 %28 to i32
  %30 = load i32, ptr %6, align 4, !tbaa !43
  %.not26 = icmp eq i32 %30, %.sext
  %.sext5 = sext i8 %29 to i32
  %.not27 = icmp eq i32 %18, %.sext5
  %or.cond = and i1 %.not26, %.not27
  br i1 %or.cond, label %34, label %.sink.split

31:                                               ; preds = %21
  %32 = add nsw i32 %14, 1
  %33 = load i32, ptr %1, align 4, !tbaa !42
  %.not = icmp eq i32 %32, %33
  br i1 %.not, label %34, label %.sink.split

.sink.split:                                      ; preds = %31, %27, %24, %10
  store i8 0, ptr %.sroa.01.06, align 4, !tbaa !25
  tail call void @llvm.memset.p0.i64(ptr noundef nonnull align 4 dereferenceable(16) %11, i8 0, i64 16, i1 false)
  store i32 -1, ptr %15, align 4, !tbaa !32
  br label %34

34:                                               ; preds = %27, %.sink.split, %31, %24, %21, %7
  %35 = getelementptr inbounds nuw i8, ptr %.sroa.01.06, i64 24
  %36 = icmp eq ptr %35, %.8.val
  br i1 %36, label %._crit_edge, label %7
}